target datalayout = "e-m:e-p270:32:32-p271:32:32-p272:64:64-i64:64-i128:128-f80:128-n8:16:32:64-S128"
target triple = "x86_64-pc-linux-gnu"

%struct.dirent = type { i64, i64, i16, i8, [256 x i8] }

@.str.2 = private unnamed_addr constant [5 x i8] c"/dev\00", align 1
@.str.3 = private unnamed_addr constant [8 x i8] c"video%d\00", align 1
@.str.4 = private unnamed_addr constant [13 x i8] c"/dev/video%d\00", align 1

; Function Attrs: nounwind uwtable
define internal void @V4L2_DetectDevices() #0 {
  %1 = alloca ptr, align 8
  %2 = alloca ptr, align 8
  %3 = alloca i32, align 4
  %4 = alloca [64 x i8], align 16
  %5 = call zeroext i1 @SDL_UDEV_Init()
  br i1 %5, label %6, label %11

6:                                                ; preds = %0
  %7 = call zeroext i1 @SDL_UDEV_AddCallback(ptr noundef @CameraUdevCallback)
  br i1 %7, label %8, label %10

8:                                                ; preds = %6
  %9 = call zeroext i1 @SDL_UDEV_Scan()
  br label %10

10:                                               ; preds = %8, %6
  br label %36

11:                                               ; preds = %0
  call void @llvm.lifetime.start.p0(i64 8, ptr %1) #8
  %12 = call noalias ptr @opendir(ptr noundef @.str.2)
  store ptr %12, ptr %1, align 8
  %13 = load ptr, ptr %1, align 8
  %14 = icmp ne ptr %13, null
  br i1 %14, label %15, label %35

15:                                               ; preds = %11
  call void @llvm.lifetime.start.p0(i64 8, ptr %2) #8
  br label %16

16:                                               ; preds = %31, %15
  %17 = load ptr, ptr %1, align 8
  %18 = call ptr @readdir(ptr noundef %17)
  store ptr %18, ptr %2, align 8
  %19 = icmp ne ptr %18, null
  br i1 %19, label %20, label %32

20:                                               ; preds = %16
  call void @llvm.lifetime.start.p0(i64 4, ptr %3) #8
  store i32 0, ptr %3, align 4
  %21 = load ptr, ptr %2, align 8
  %22 = getelementptr inbounds nuw %struct.dirent, ptr %21, i32 0, i32 4
  %23 = getelementptr inbounds [256 x i8], ptr %22, i64 0, i64 0
  %24 = call i32 (ptr, ptr, ...) @SDL_sscanf_REAL(ptr noundef %23, ptr noundef @.str.3, ptr noundef %3)
  %25 = icmp eq i32 %24, 1
  br i1 %25, label %26, label %31

26:                                               ; preds = %20
  call void @llvm.lifetime.start.p0(i64 64, ptr %4) #8
  %27 = getelementptr inbounds [64 x i8], ptr %4, i64 0, i64 0
  %28 = load i32, ptr %3, align 4
  %29 = call i32 (ptr, i64, ptr, ...) @SDL_snprintf_REAL(ptr noundef %27, i64 noundef 64, ptr noundef @.str.4, i32 noundef %28)
  %30 = getelementptr inbounds [64 x i8], ptr %4, i64 0, i64 0
  call void @MaybeAddDevice(ptr noundef %30)
  call void @llvm.lifetime.end.p0(i64 64, ptr %4) #8
  br label %31

31:                                               ; preds = %26, %20
  call void @llvm.lifetime.end.p0(i64 4, ptr %3) #8
  br label %16, !llvm.loop !3

32:                                               ; preds = %16
  %33 = load ptr, ptr %1, align 8
  %34 = call i32 @closedir(ptr noundef %33)
  call void @llvm.lifetime.end.p0(i64 8, ptr %2) #8
  br label %35

35:                                               ; preds = %32, %11
  call void @llvm.lifetime.end.p0(i64 8, ptr %1) #8
  br label %36

36:                                               ; preds = %35, %10
  ret void
}