; Function Attrs: nounwind uwtable
define internal void @V4L2_DetectDevices() #1 {
  %1 = alloca i32, align 4
  %2 = alloca [64 x i8], align 16
  %3 = tail call zeroext i1 @SDL_UDEV_Init() #11
  br i1 %3, label %4, label %8

4:                                                ; preds = %0
  %5 = tail call zeroext i1 @SDL_UDEV_AddCallback(ptr noundef nonnull @CameraUdevCallback) #11
  br i1 %5, label %6, label %21

6:                                                ; preds = %4
  %7 = tail call zeroext i1 @SDL_UDEV_Scan() #11
  br label %21

8:                                                ; preds = %0
  %9 = tail call noalias ptr @opendir(ptr noundef nonnull @.str.2)
  %.not = icmp eq ptr %9, null
  br i1 %.not, label %21, label %.preheader

.preheader:                                       ; preds = %8
  %10 = tail call ptr @readdir(ptr noundef nonnull %9) #11
  %.not56 = icmp eq ptr %10, null
  br i1 %.not56, label %._crit_edge, label %.lr.ph

.lr.ph:                                           ; preds = %.preheader, %18
  %11 = phi ptr [ %19, %18 ], [ %10, %.preheader ]
  call void @llvm.lifetime.start.p0(i64 4, ptr nonnull %1) #11
  store i32 0, ptr %1, align 4
  %12 = getelementptr inbounds nuw i8, ptr %11, i64 19
  %13 = call i32 (ptr, ptr, ...) @SDL_sscanf_REAL(ptr noundef nonnull %12, ptr noundef nonnull @.str.3, ptr noundef nonnull %1) #11
  %14 = icmp eq i32 %13, 1
  br i1 %14, label %15, label %18

15:                                               ; preds = %.lr.ph
  call void @llvm.lifetime.start.p0(i64 64, ptr nonnull %2) #11
  %16 = load i32, ptr %1, align 4
  %17 = call i32 (ptr, i64, ptr, ...) @SDL_snprintf_REAL(ptr noundef nonnull %2, i64 noundef 64, ptr noundef nonnull @.str.4, i32 noundef %16) #11
  call fastcc void @MaybeAddDevice(ptr noundef %2)
  call void @llvm.lifetime.end.p0(i64 64, ptr nonnull %2) #11
  br label %18

18:                                               ; preds = %15, %.lr.ph
  call void @llvm.lifetime.end.p0(i64 4, ptr nonnull %1) #11
  %19 = call ptr @readdir(ptr noundef nonnull %9) #11
  %.not5 = icmp eq ptr %19, null
  br i1 %.not5, label %._crit_edge, label %.lr.ph, !llvm.loop !3

._crit_edge:                                      ; preds = %18, %.preheader
  %20 = call i32 @closedir(ptr noundef nonnull %9)
  br label %21

21:                                               ; preds = %8, %._crit_edge, %4, %6
  ret void
}